target datalayout = "e-m:e-p270:32:32-p271:32:32-p272:64:64-i64:64-i128:128-f80:128-n8:16:32:64-S128"
target triple = "x86_64-pc-linux-gnu"

%class.PerfData = type { ptr, ptr, i32, i32, i8, i32, ptr, ptr }
%struct.PerfDataPrologue = type { i32, i8, i8, i8, i8, i32, i32, i64, i32, i32 }

@_ZN10Management23_begin_vm_creation_timeE = hidden global ptr null, align 8
@_ZN10Management21_end_vm_creation_timeE = hidden global ptr null, align 8
@UsePerfData = external global i8, align 1
@_ZN10PerfMemory9_prologueE = external global ptr, align 8

; Function Attrs: mustprogress nounwind uwtable
define linkonce_odr hidden void @_ZN10PerfMemory14set_accessibleEb(i1 noundef zeroext %0) #1 comdat align 2 {
  %2 = alloca i8, align 1
  %3 = zext i1 %0 to i8
  store i8 %3, ptr %2, align 1
  %4 = load i8, ptr @UsePerfData, align 1
  %5 = trunc i8 %4 to i1
  br i1 %5, label %6, label %12

6:                                                ; preds = %1
  %7 = load i8, ptr %2, align 1
  %8 = trunc i8 %7 to i1
  %9 = zext i1 %8 to i8
  %10 = load ptr, ptr @_ZN10PerfMemory9_prologueE, align 8
  %11 = getelementptr inbounds %struct.PerfDataPrologue, ptr %10, i32 0, i32 4
  store i8 %9, ptr %11, align 1
  br label %12

12:                                               ; preds = %6, %1
  ret void
}

; Function Attrs: mustprogress nounwind uwtable
define linkonce_odr hidden void @_ZN16PerfLongVariable9set_valueEl(ptr noundef nonnull align 8 dereferenceable(56) %0, i64 noundef %1) #1 comdat align 2 {
  %3 = alloca ptr, align 8
  %4 = alloca i64, align 8
  store ptr %0, ptr %3, align 8
  store i64 %1, ptr %4, align 8
  %5 = load ptr, ptr %3, align 8
  %6 = load i64, ptr %4, align 8
  %7 = getelementptr inbounds %class.PerfData, ptr %5, i32 0, i32 7
  %8 = load ptr, ptr %7, align 8
  store i64 %6, ptr %8, align 8
  ret void
}

; Function Attrs: mustprogress nounwind uwtable
define hidden void @_ZN10Management22record_vm_startup_timeEll(i64 noundef %0, i64 noundef %1) #1 align 2 {
  %3 = alloca i64, align 8
  %4 = alloca i64, align 8
  store i64 %0, ptr %3, align 8
  store i64 %1, ptr %4, align 8
  %5 = load ptr, ptr @_ZN10Management23_begin_vm_creation_timeE, align 8
  %6 = icmp eq ptr %5, null
  br i1 %6, label %7, label %8

7:                                                ; preds = %2
  br label %15

8:                                                ; preds = %2
  %9 = load ptr, ptr @_ZN10Management23_begin_vm_creation_timeE, align 8
  %10 = load i64, ptr %3, align 8
  call void @_ZN16PerfLongVariable9set_valueEl(ptr noundef nonnull align 8 dereferenceable(56) %9, i64 noundef %10)
  %11 = load ptr, ptr @_ZN10Management21_end_vm_creation_timeE, align 8
  %12 = load i64, ptr %3, align 8
  %13 = load i64, ptr %4, align 8
  %14 = add nsw i64 %12, %13
  call void @_ZN16PerfLongVariable9set_valueEl(ptr noundef nonnull align 8 dereferenceable(56) %11, i64 noundef %14)
  call void @_ZN10PerfMemory14set_accessibleEb(i1 noundef zeroext true)
  br label %15

15:                                               ; preds = %8, %7
  ret void
}