; Function Attrs: mustprogress nofree norecurse nosync nounwind willreturn memory(readwrite, inaccessiblemem: none) uwtable
define hidden void @_ZN10Management22record_vm_startup_timeEll(i64 noundef %0, i64 noundef %1) local_unnamed_addr #5 align 2 {
  %3 = load ptr, ptr @_ZN10Management23_begin_vm_creation_timeE, align 8
  %4 = icmp eq ptr %3, null
  br i1 %4, label %_ZN10PerfMemory14set_accessibleEb.exit, label %5

5:                                                ; preds = %2
  %6 = getelementptr inbounds i8, ptr %3, i64 40
  %7 = load ptr, ptr %6, align 8
  store i64 %0, ptr %7, align 8
  %8 = load ptr, ptr @_ZN10Management21_end_vm_creation_timeE, align 8
  %9 = add nsw i64 %1, %0
  %10 = getelementptr inbounds i8, ptr %8, i64 40
  %11 = load ptr, ptr %10, align 8
  store i64 %9, ptr %11, align 8
  %12 = load i8, ptr @UsePerfData, align 1
  %13 = trunc i8 %12 to i1
  br i1 %13, label %14, label %_ZN10PerfMemory14set_accessibleEb.exit

14:                                               ; preds = %5
  %15 = load ptr, ptr @_ZN10PerfMemory9_prologueE, align 8
  %16 = getelementptr inbounds i8, ptr %15, i64 7
  store i8 1, ptr %16, align 1
  br label %_ZN10PerfMemory14set_accessibleEb.exit

_ZN10PerfMemory14set_accessibleEb.exit:           ; preds = %14, %5, %2
  ret void
}